target datalayout = "e-m:e-p270:32:32-p271:32:32-p272:64:64-i64:64-i128:128-f80:128-n8:16:32:64-S128"
target triple = "x86_64-pc-linux-gnu"

%struct.slurm_conf_t = type { i64, ptr, i16, ptr, ptr, ptr, ptr, ptr, i16, ptr, ptr, ptr, ptr, ptr, ptr, ptr, i16, ptr, ptr, ptr, ptr, i16, ptr, ptr, ptr, i64, ptr, ptr, ptr, ptr, i16, ptr, ptr, i16, i32, ptr, i32, ptr, i32, i32, ptr, ptr, i64, i64, ptr, i16, i16, ptr, i32, i32, ptr, i32, ptr, i32, i16, i16, i16, ptr, i16, i16, ptr, ptr, i32, i16, i16, ptr, i32, i16, ptr, ptr, ptr, ptr, i16, ptr, ptr, ptr, ptr, i32, ptr, ptr, ptr, ptr, i16, i16, ptr, i32, i32, i32, i16, i16, ptr, ptr, i16, ptr, ptr, i32, i32, i32, i32, i32, i64, i32, i32, i16, ptr, ptr, i32, ptr, ptr, ptr, i16, i32, ptr, ptr, i16, ptr, ptr, i32, i16, ptr, ptr, ptr, ptr, i32, i32, i16, i16, i32, ptr, i16, ptr, i32, i32, i32, i32, i32, i32, ptr, i16, ptr, ptr, i32, i16, ptr, i32, i16, i16, ptr, ptr, ptr, i16, ptr, ptr, ptr, ptr, i16, i16, ptr, i16, ptr, i16, ptr, i16, ptr, i16, ptr, ptr, ptr, ptr, i16, ptr, ptr, ptr, i32, ptr, i32, ptr, ptr, i16, ptr, ptr, i32, i16, ptr, ptr, i16, i16, ptr, i16, ptr, ptr, ptr, i32, ptr, i16, i16, ptr, ptr, ptr, ptr, ptr, ptr, ptr, ptr, i16, i32, i16, ptr, ptr, ptr, ptr, i32, ptr, ptr, ptr, i16, ptr, ptr, ptr, i16, ptr, i16, ptr, i16, i16, ptr }
%struct.slurm_acct_storage_ops = type { ptr, ptr, ptr, ptr, ptr, ptr, ptr, ptr, ptr, ptr, ptr, ptr, ptr, ptr, ptr, ptr, ptr, ptr, ptr, ptr, ptr, ptr, ptr, ptr, ptr, ptr, ptr, ptr, ptr, ptr, ptr, ptr, ptr, ptr, ptr, ptr, ptr, ptr, ptr, ptr, ptr, ptr, ptr, ptr, ptr, ptr, ptr, ptr, ptr, ptr, ptr, ptr, ptr, ptr, ptr, ptr, ptr, ptr, ptr, ptr, ptr, ptr, ptr, ptr, ptr, ptr, ptr, ptr, ptr, ptr, ptr, ptr, ptr, ptr, ptr, ptr, ptr, ptr, ptr, ptr }
%struct.step_record_t = type { i32, ptr, ptr, ptr, i32, ptr, ptr, i32, i32, i32, i32, i16, i16, ptr, i16, i32, ptr, i32, ptr, ptr, ptr, ptr, ptr, ptr, ptr, ptr, ptr, i64, i16, i64, i16, ptr, i16, ptr, i32, i64, i32, ptr, i32, i32, %struct.slurm_step_id_msg, ptr, ptr, ptr, ptr, i16, i64, i64, ptr, ptr, ptr, ptr, ptr, ptr, ptr, ptr }
%struct.slurm_step_id_msg = type { i64, i32, i32, i32 }

@plugin_inited = internal global i32 0, align 4
@slurm_conf = external global %struct.slurm_conf_t, align 8
@ops = internal global %struct.slurm_acct_storage_ops zeroinitializer, align 8
@max_step_records = internal global i32 -2, align 4

; Function Attrs: nounwind uwtable
define dso_local i32 @jobacct_storage_g_step_start(ptr noundef %0, ptr noundef %1) #0 {
  %3 = alloca i32, align 4
  %4 = alloca ptr, align 8
  %5 = alloca ptr, align 8
  store ptr %0, ptr %4, align 8
  store ptr %1, ptr %5, align 8
  %6 = load i32, ptr @plugin_inited, align 4
  %7 = icmp eq i32 %6, 1
  br i1 %7, label %8, label %9

8:                                                ; preds = %2
  store i32 0, ptr %3, align 4
  br label %37

9:                                                ; preds = %2
  %10 = load i16, ptr getelementptr inbounds nuw (%struct.slurm_conf_t, ptr @slurm_conf, i32 0, i32 2), align 8
  %11 = zext i16 %10 to i64
  %12 = and i64 %11, 64
  %13 = icmp ne i64 %12, 0
  br i1 %13, label %14, label %15

14:                                               ; preds = %9
  store i32 0, ptr %3, align 4
  br label %37

15:                                               ; preds = %9
  %16 = load i32, ptr @max_step_records, align 4
  %17 = icmp ne i32 %16, -2
  br i1 %17, label %18, label %32

18:                                               ; preds = %15
  %19 = load ptr, ptr %5, align 8
  %20 = getelementptr inbounds nuw %struct.step_record_t, ptr %19, i32 0, i32 40
  %21 = getelementptr inbounds nuw %struct.slurm_step_id_msg, ptr %20, i32 0, i32 3
  %22 = load i32, ptr %21, align 8
  %23 = icmp ult i32 %22, -16
  br i1 %23, label %24, label %32

24:                                               ; preds = %18
  %25 = load ptr, ptr %5, align 8
  %26 = getelementptr inbounds nuw %struct.step_record_t, ptr %25, i32 0, i32 40
  %27 = getelementptr inbounds nuw %struct.slurm_step_id_msg, ptr %26, i32 0, i32 3
  %28 = load i32, ptr %27, align 8
  %29 = load i32, ptr @max_step_records, align 4
  %30 = icmp uge i32 %28, %29
  br i1 %30, label %31, label %32

31:                                               ; preds = %24
  store i32 0, ptr %3, align 4
  br label %37

32:                                               ; preds = %24, %18, %15
  %33 = load ptr, ptr getelementptr inbounds nuw (%struct.slurm_acct_storage_ops, ptr @ops, i32 0, i32 65), align 8
  %34 = load ptr, ptr %4, align 8
  %35 = load ptr, ptr %5, align 8
  %36 = call i32 %33(ptr noundef %34, ptr noundef %35)
  store i32 %36, ptr %3, align 4
  br label %37

37:                                               ; preds = %32, %31, %14, %8
  %38 = load i32, ptr %3, align 4
  ret i32 %38
}