; Function Attrs: nounwind uwtable
define dso_local i32 @jobacct_storage_g_step_start(ptr noundef %0, ptr noundef %1) local_unnamed_addr #0 {
  %3 = load i32, ptr @plugin_inited, align 4
  %4 = icmp eq i32 %3, 1
  br i1 %4, label %17, label %5

5:                                                ; preds = %2
  %6 = load i16, ptr getelementptr inbounds nuw (i8, ptr @slurm_conf, i64 16), align 8
  %7 = and i16 %6, 64
  %.not = icmp eq i16 %7, 0
  br i1 %.not, label %8, label %17

8:                                                ; preds = %5
  %9 = load i32, ptr @max_step_records, align 4
  %.not6 = icmp eq i32 %9, -2
  br i1 %.not6, label %14, label %10

10:                                               ; preds = %8
  %11 = getelementptr inbounds nuw i8, ptr %1, i64 296
  %12 = load i32, ptr %11, align 8
  %13 = icmp ugt i32 %12, -17
  %.not7 = icmp ult i32 %12, %9
  %or.cond = or i1 %13, %.not7
  br i1 %or.cond, label %14, label %17

14:                                               ; preds = %10, %8
  %15 = load ptr, ptr getelementptr inbounds nuw (i8, ptr @ops, i64 520), align 8
  %16 = tail call i32 %15(ptr noundef %0, ptr noundef %1) #8
  br label %17

17:                                               ; preds = %10, %5, %2, %14
  %.0 = phi i32 [ %16, %14 ], [ 0, %2 ], [ 0, %5 ], [ 0, %10 ]
  ret i32 %.0
}